Certificate:
    Data:
        Version: 3 (0x2)
        Serial Number: 2 (0x2)
    Signature Algorithm: sha256WithRSAEncryption
        Issuer: CN=Easy-RSA CA
        Validity
            Not Before: Apr 20 11:18:15 2017 GMT
            Not After : Apr 18 11:18:15 2027 GMT
        Subject: CN=client1
        Subject Public Key Info:
            Public Key Algorithm: rsaEncryption
                Public-Key: (4096 bit)
                Modulus:
                    00:eb:8d:72:08:1b:e3:f5:cd:f6:a5:14:ba:14:ae:
                    a3:0b:d3:0e:2d:34:13:9c:96:bd:5a:40:f7:43:24:
                    83:7b:9f:59:cb:14:69:83:9e:3e:13:0e:fd:94:db:
                    aa:f5:40:7a:8f:6a:99:3c:51:e9:0e:62:3c:60:5b:
                    ae:a3:7e:3b:6a:dd:63:67:2e:be:2a:48:62:fe:e8:
                    f7:3d:c7:76:35:3e:9f:bb:e3:4a:5c:53:05:ec:da:
                    11:61:d7:82:b6:a3:34:b0:6f:96:07:8e:6f:af:70:
                    55:33:27:bd:af:65:c5:3d:c3:27:12:8f:64:f5:a6:
                    38:18:f2:52:62:3b:a0:f4:d0:6d:91:79:e6:2c:86:
                    d0:9a:ab:97:06:0c:e9:32:0c:77:05:13:e6:9d:cb:
                    df:4a:d6:6d:bd:be:27:a2:a5:00:ec:4e:b5:31:1e:
                    0f:48:08:45:28:e8:bd:ad:b0:15:6e:f2:7d:23:cf:
                    c2:3b:e7:52:56:95:dd:c5:b6:cc:9e:c6:4b:be:c5:
                    71:28:73:e9:da:9e:d4:0c:94:08:b8:ac:8c:fe:37:
                    46:0d:67:f2:be:a7:4e:da:87:05:3e:58:d8:9f:71:
                    e5:60:bd:71:12:3a:d4:f3:8d:5b:08:2a:e6:c4:dd:
                    46:ad:5d:96:ff:91:f1:df:a1:78:53:45:18:9d:94:
                    18:9d:d0:ce:5e:95:a4:9b:15:84:6f:0d:1b:3f:e6:
                    2c:4f:1e:dc:34:57:dc:7a:94:eb:ad:0b:61:5b:e4:
                    bf:11:a6:d6:5f:c0:d5:25:79:a8:96:06:bb:60:71:
                    04:57:e1:e9:40:f0:3b:bd:90:21:4f:7c:92:1e:25:
                    26:29:8b:1a:e1:9f:e4:f4:be:50:82:1a:8e:e3:7f:
                    67:78:cb:6d:72:5c:04:b4:a5:45:92:b3:a8:20:5b:
                    cf:77:89:ed:4e:32:20:09:36:c0:23:9e:d4:a8:0e:
                    59:2c:ff:e3:27:f7:31:b5:d2:d2:01:7a:51:4f:60:
                    9e:57:a6:6b:d1:5b:3d:51:3a:6e:0c:51:6b:7a:4d:
                    5e:17:e7:72:37:be:83:17:b8:b6:73:5c:57:ee:d5:
                    c3:89:7e:16:a6:4b:da:ec:32:6c:d2:bf:04:6b:a3:
                    c0:fa:62:31:62:45:35:b4:eb:4b:5a:5f:56:d5:49:
                    d0:c8:e0:83:61:1f:0e:ce:e8:ec:85:08:41:17:46:
                    9b:fc:56:40:8f:d4:4b:00:3b:aa:9c:67:b3:56:34:
                    2f:07:57:5d:49:8c:fd:41:6e:50:2a:46:ae:9e:8d:
                    8c:18:a0:0d:3e:61:23:a8:63:c6:4e:26:58:fd:dc:
                    44:ce:07:ca:4c:b1:0a:71:04:9f:31:28:2c:47:f3:
                    e5:ce:67
                Exponent: 65537 (0x10001)
        X509v3 extensions:
            X509v3 Basic Constraints: 
                CA:FALSE
            X509v3 Subject Key Identifier: 
                3B:95:C5:B5:DD:60:75:DA:31:DA:E2:1C:2A:9E:64:9F:73:07:B8:C6
            X509v3 Authority Key Identifier: 
                keyid:C3:29:95:F0:6D:26:F6:EF:03:F0:85:9A:6F:67:41:E2:31:5E:47:4D
                DirName:/CN=Easy-RSA CA
                serial:C1:6C:E6:15:52:D4:39:9A

            X509v3 Extended Key Usage: 
                TLS Web Client Authentication
            X509v3 Key Usage: 
                Digital Signature
    Signature Algorithm: sha256WithRSAEncryption
         7d:bd:1d:57:fb:fe:72:f5:17:06:01:1c:62:36:b7:f9:b8:39:
         63:58:1f:64:b0:f3:f0:38:58:00:12:b4:91:ec:84:6e:54:f1:
         4e:4b:82:ca:e8:1b:12:32:83:fd:25:0c:b2:7e:9a:54:83:90:
         d4:50:a4:d6:22:4e:50:4a:29:0d:d7:54:e8:ad:c9:dd:7c:8e:
         5f:15:01:48:ab:c6:2c:df:91:81:3d:e2:c3:d3:da:f6:25:f9:
         13:97:c2:2d:ab:6d:52:43:93:10:66:3f:d8:fe:98:0c:1a:a2:
         24:f5:f2:1c:e8:58:38:56:b1:98:53:e0:4d:3d:47:bb:51:56:
         bb:ef:9b:c9:04:31:e3:f9:e5:35:82:7e:0b:83:2b:86:91:fb:
         32:36:15:87:51:7a:64:4e:fc:49:16:97:55:27:04:d8:ae:a8:
         d4:76:b5:9b:45:c2:2d:f1:01:76:7a:60:d6:ff:50:22:6f:e6:
         df:d2:8d:89:77:f7:db:4f:32:82:a7:63:ea:0b:81:1f:38:77:
         72:70:c8:b6:83:78:28:51:5b:cf:bf:b1:8a:a5:a1:e0:b8:26:
         ba:2b:5a:3a:2d:26:4b:4c:68:3f:ed:0c:10:1f:10:31:54:ec:
         1b:22:76:7a:0b:28:e0:05:61:f9:d2:82:5a:31:f2:89:9c:2d:
         08:78:c2:93:bd:33:ec:82:71:98:2f:a0:2c:96:82:61:df:1b:
         8d:df:75:a9:0f:82:38:30:ea:da:46:58:d0:84:71:37:de:a9:
         dd:0d:e6:66:e0:d4:90:3c:73:aa:e4:81:3a:f2:08:df:c0:74:
         11:53:db:de:3a:4c:c0:e0:c0:ea:d9:3e:ea:d3:eb:c2:00:10:
         a8:b4:38:be:a1:19:15:51:b6:f9:5a:14:e2:5a:6f:1a:51:53:
         96:a5:4a:6b:ce:68:d4:ba:01:55:87:8d:82:6c:3c:a7:4f:8c:
         49:08:ab:4a:95:9e:c3:3c:c2:0a:dd:31:66:cc:85:1a:b2:5f:
         e7:ec:65:51:33:fe:dc:f7:d5:4e:62:9e:52:96:8c:c3:b2:b2:
         fd:b6:6a:28:e2:5c:2f:a5:36:8f:5c:2c:84:0a:f2:7b:a4:d3:
         5a:1b:d4:31:0c:44:cd:55:a8:83:a9:4b:a9:c6:93:61:ec:5e:
         8f:d6:26:ac:d3:d1:1a:19:2a:d0:b4:40:42:f1:5e:56:fe:04:
         63:df:ff:21:1f:fd:3d:bc:d7:7b:5e:f9:ec:74:88:f1:ec:be:
         8b:32:32:e4:5f:ee:56:e2:1a:29:d4:f3:49:9e:98:15:e5:e5:
         f3:c8:f2:5d:5e:6f:82:6e:9e:6a:54:c0:a8:36:b5:40:97:11:
         a1:33:71:79:80:7f:c2:8e
-----BEGIN CERTIFICATE-----
MIIFOzCCAyOgAwIBAgIBAjANBgkqhkiG9w0BAQsFADAWMRQwEgYDVQQDEwtFYXN5
LVJTQSBDQTAeFw0xNzA0MjAxMTE4MTVaFw0yNzA0MTgxMTE4MTVaMBIxEDAOBgNV
BAMTB2NsaWVudDEwggIiMA0GCSqGSIb3DQEBAQUAA4ICDwAwggIKAoICAQDrjXII
G+P1zfalFLoUrqML0w4tNBOclr1aQPdDJIN7n1nLFGmDnj4TDv2U26r1QHqPapk8
UekOYjxgW66jfjtq3WNnLr4qSGL+6Pc9x3Y1Pp+740pcUwXs2hFh14K2ozSwb5YH
jm+vcFUzJ72vZcU9wycSj2T1pjgY8lJiO6D00G2ReeYshtCaq5cGDOkyDHcFE+ad
y99K1m29vieipQDsTrUxHg9ICEUo6L2tsBVu8n0jz8I751JWld3Ftsyexku+xXEo
c+nantQMlAi4rIz+N0YNZ/K+p07ahwU+WNifceVgvXESOtTzjVsIKubE3UatXZb/
kfHfoXhTRRidlBid0M5elaSbFYRvDRs/5ixPHtw0V9x6lOutC2Fb5L8RptZfwNUl
eaiWBrtgcQRX4elA8Du9kCFPfJIeJSYpixrhn+T0vlCCGo7jf2d4y21yXAS0pUWS
s6ggW893ie1OMiAJNsAjntSoDlks/+Mn9zG10tIBelFPYJ5XpmvRWz1ROm4MUWt6
TV4X53I3voMXuLZzXFfu1cOJfhamS9rsMmzSvwRro8D6YjFiRTW060taX1bVSdDI
4INhHw7O6OyFCEEXRpv8VkCP1EsAO6qcZ7NWNC8HV11JjP1BblAqRq6ejYwYoA0+
YSOoY8ZOJlj93ETOB8pMsQpxBJ8xKCxH8+XOZwIDAQABo4GXMIGUMAkGA1UdEwQC
MAAwHQYDVR0OBBYEFDuVxbXdYHXaMdriHCqeZJ9zB7jGMEYGA1UdIwQ/MD2AFMMp
lfBtJvbvA/CFmm9nQeIxXkdNoRqkGDAWMRQwEgYDVQQDEwtFYXN5LVJTQSBDQYIJ
AMFs5hVS1DmaMBMGA1UdJQQMMAoGCCsGAQUFBwMCMAsGA1UdDwQEAwIHgDANBgkq
hkiG9w0BAQsFAAOCAgEAfb0dV/v+cvUXBgEcYja3+bg5Y1gfZLDz8DhYABK0keyE
blTxTkuCyugbEjKD/SUMsn6aVIOQ1FCk1iJOUEopDddU6K3J3XyOXxUBSKvGLN+R
gT3iw9Pa9iX5E5fCLattUkOTEGY/2P6YDBqiJPXyHOhYOFaxmFPgTT1Hu1FWu++b
yQQx4/nlNYJ+C4MrhpH7MjYVh1F6ZE78SRaXVScE2K6o1Ha1m0XCLfEBdnpg1v9Q
Im/m39KNiXf3208ygqdj6guBHzh3cnDItoN4KFFbz7+xiqWh4LgmuitaOi0mS0xo
P+0MEB8QMVTsGyJ2egso4AVh+dKCWjHyiZwtCHjCk70z7IJxmC+gLJaCYd8bjd91
qQ+CODDq2kZY0IRxN96p3Q3mZuDUkDxzquSBOvII38B0EVPb3jpMwODA6tk+6tPr
wgAQqLQ4vqEZFVG2+VoU4lpvGlFTlqVKa85o1LoBVYeNgmw8p0+MSQirSpWewzzC
Ct0xZsyFGrJf5+xlUTP+3PfVTmKeUpaMw7Ky/bZqKOJcL6U2j1wshArye6TTWhvU
MQxEzVWog6lLqcaTYexej9YmrNPRGhkq0LRAQvFeVv4EY9//IR/9PbzXe1757HSI
8ey+izIy5F/uVuIaKdTzSZ6YFeXl88jyXV5vgm6ealTAqDa1QJcRoTNxeYB/wo4=
-----END CERTIFICATE-----
