Certificate:
    Data:
        Version: 3 (0x2)
        Serial Number: 1 (0x1)
    Signature Algorithm: sha256WithRSAEncryption
        Issuer: CN=Easy-RSA CA
        Validity
            Not Before: Apr 20 09:22:30 2017 GMT
            Not After : Apr 18 09:22:30 2027 GMT
        Subject: CN=server
        Subject Public Key Info:
            Public Key Algorithm: rsaEncryption
                Public-Key: (4096 bit)
                Modulus:
                    00:f0:05:fc:0e:64:1f:27:00:95:6c:c8:3d:53:57:
                    c7:62:a3:b7:0e:65:6b:ac:27:70:db:99:6e:7e:b9:
                    4e:23:67:dc:64:0c:d2:42:8a:35:30:73:f6:84:a0:
                    c6:3c:ab:bf:54:4f:dd:f5:a5:0c:3b:fd:1c:e3:f8:
                    a6:1f:87:1d:2d:8f:bf:35:2d:25:74:be:fa:23:f9:
                    b1:7a:3a:81:79:bf:a2:98:22:0b:fa:2a:f6:7d:fd:
                    e4:a8:bb:b9:dc:74:06:08:c3:aa:f7:6a:4d:1b:db:
                    78:7d:e0:5c:5f:77:2a:23:2c:1b:86:29:e4:1e:86:
                    57:3e:f0:12:a5:79:e9:92:45:9f:04:30:ce:5f:df:
                    a0:76:e3:a6:bf:4a:2f:78:38:b2:c5:dc:ea:c5:42:
                    c1:e0:e2:5b:f1:8c:b1:af:e1:0c:b4:56:25:a8:37:
                    6d:41:b3:42:e3:c9:40:c2:b3:af:35:30:2e:e4:27:
                    8c:73:b3:60:e8:bb:76:89:54:5a:a6:aa:3d:97:6c:
                    0f:3f:1f:f6:70:fb:b3:38:11:f4:53:8f:4e:7c:a9:
                    69:4a:96:e8:a2:87:8f:81:ba:10:41:71:d8:6c:c9:
                    22:b0:ce:c2:ba:f1:0b:5f:ae:42:a9:31:38:b4:e7:
                    1c:15:c1:f9:88:01:45:0f:bf:66:c7:93:b6:25:99:
                    0a:99:e8:f8:da:ef:31:e6:ea:9b:9a:51:ef:0c:ee:
                    11:7c:28:2b:3c:03:dd:d1:d0:73:25:bd:c5:8d:46:
                    c7:2e:58:50:25:62:a5:6a:9c:a8:8c:8e:34:a4:81:
                    c4:af:a4:93:8b:43:3d:df:ab:f0:5c:68:49:00:72:
                    b6:13:76:5a:b4:6c:8c:46:42:56:62:9c:31:88:1f:
                    68:23:7b:cb:cd:27:91:fd:88:06:e8:c5:31:be:e2:
                    e3:99:6f:cb:66:18:21:a6:33:1c:2b:eb:ea:89:42:
                    95:95:8e:00:11:12:02:20:65:2a:0e:9b:79:d9:14:
                    93:fc:64:d3:ef:7c:de:61:ec:2e:0d:d8:9d:68:bd:
                    69:7f:db:fc:88:72:19:89:43:04:ff:41:e5:e7:47:
                    f1:b8:d5:4e:08:a4:89:64:b8:66:8d:29:97:f9:fa:
                    c6:e8:46:be:09:84:18:9f:16:36:05:f0:47:bb:4b:
                    78:62:95:e7:d0:96:ae:12:02:31:d0:31:3d:69:93:
                    82:c0:66:3b:fb:d7:61:1f:0b:5d:f1:a6:a6:17:41:
                    f3:b2:8e:b3:3a:68:25:b5:7e:b4:b7:d5:53:0d:46:
                    36:0d:02:31:3e:a7:49:27:77:9d:29:47:f4:3f:e4:
                    a8:9d:7c:31:0d:59:2e:69:68:15:91:df:e6:c5:e4:
                    72:0d:97
                Exponent: 65537 (0x10001)
        X509v3 extensions:
            X509v3 Basic Constraints: 
                CA:FALSE
            X509v3 Subject Key Identifier: 
                65:63:1C:36:6C:E3:91:9E:C8:85:A6:75:AE:78:84:86:EE:20:56:C9
            X509v3 Authority Key Identifier: 
                keyid:C3:29:95:F0:6D:26:F6:EF:03:F0:85:9A:6F:67:41:E2:31:5E:47:4D
                DirName:/CN=Easy-RSA CA
                serial:C1:6C:E6:15:52:D4:39:9A

            X509v3 Extended Key Usage: 
                TLS Web Server Authentication
            X509v3 Key Usage: 
                Digital Signature, Key Encipherment
    Signature Algorithm: sha256WithRSAEncryption
         44:b2:6d:d5:91:46:03:98:6c:10:22:3e:51:dd:f9:a2:6e:62:
         df:74:f3:5d:fb:df:26:0b:0f:6e:72:2d:3f:9d:42:72:5e:c0:
         bf:74:48:c2:97:c1:55:88:a9:f5:c2:25:a2:84:4a:f7:89:1e:
         14:b1:1b:09:23:51:39:b7:b5:10:b5:40:99:3a:23:d3:0d:a3:
         35:26:20:c7:55:c1:f5:7e:65:b4:41:8f:e6:ab:6e:f9:d0:3c:
         17:d0:4d:6f:86:83:63:df:b0:ea:34:ea:af:3e:36:4d:75:77:
         db:4e:d1:65:5e:46:d5:8b:bc:9f:dc:54:13:d8:08:8b:44:c6:
         da:7a:66:12:eb:91:fc:e9:57:94:b6:83:64:95:34:1b:51:05:
         fe:67:cd:ba:24:d4:36:b0:38:a3:73:7f:0f:d1:83:f9:18:35:
         6a:f1:38:53:d2:67:6f:01:b5:6b:7c:fa:59:84:3f:ad:d7:d1:
         2a:45:e2:c1:d0:34:e6:4a:7d:1b:98:a7:8c:61:56:39:4e:a0:
         4e:23:f3:e6:a3:48:db:0f:a0:6a:d7:56:01:07:95:22:79:d2:
         95:19:72:c4:88:a7:63:19:3a:94:79:fa:86:99:be:1c:78:8f:
         de:f9:d7:bf:0b:fe:30:c0:93:6a:92:48:d8:c7:60:ae:45:73:
         6d:2f:76:b7:00:ec:2d:f1:47:75:bb:d1:cc:e4:e9:97:c9:20:
         55:76:32:61:fa:b8:92:b8:ae:f5:fc:7b:46:14:8b:7f:ba:8e:
         c9:cb:26:3f:92:ae:b0:65:e3:59:aa:73:d8:f7:a5:48:04:cd:
         38:07:24:c0:6f:14:36:dd:d4:6e:f7:85:ab:de:1c:a0:3b:92:
         17:30:f2:f1:69:89:09:80:fa:89:a8:79:5d:a5:fb:28:39:65:
         52:a0:7d:ed:09:d4:b9:90:6b:35:be:b1:9b:39:12:57:a3:57:
         47:92:d9:54:9d:95:5c:e1:41:90:c2:e9:89:81:2d:4e:7a:a0:
         6c:0f:24:98:bb:b4:ab:ae:24:fc:47:5f:b9:e3:26:8e:2d:64:
         a7:67:d6:b5:e2:48:70:36:23:e4:04:0e:20:08:3d:2e:54:32:
         2c:c4:9e:6a:71:65:69:e5:34:35:18:9e:09:46:e3:2a:7d:fa:
         23:e2:9a:b0:27:c2:d3:c9:2e:f6:1f:1f:f5:ac:d5:e1:eb:66:
         22:bf:44:3a:e8:db:19:d5:e6:c9:62:ae:61:47:97:02:b4:28:
         ff:39:00:fb:1a:92:9c:34:56:6f:bf:68:75:63:71:04:db:17:
         e4:be:79:8e:c1:0a:d4:ec:64:bf:05:82:51:d3:0d:c8:f3:b0:
         af:d8:75:76:8b:e2:3f:f0
-----BEGIN CERTIFICATE-----
MIIFOjCCAyKgAwIBAgIBATANBgkqhkiG9w0BAQsFADAWMRQwEgYDVQQDEwtFYXN5
LVJTQSBDQTAeFw0xNzA0MjAwOTIyMzBaFw0yNzA0MTgwOTIyMzBaMBExDzANBgNV
BAMTBnNlcnZlcjCCAiIwDQYJKoZIhvcNAQEBBQADggIPADCCAgoCggIBAPAF/A5k
HycAlWzIPVNXx2Kjtw5la6wncNuZbn65TiNn3GQM0kKKNTBz9oSgxjyrv1RP3fWl
DDv9HOP4ph+HHS2PvzUtJXS++iP5sXo6gXm/opgiC/oq9n395Ki7udx0BgjDqvdq
TRvbeH3gXF93KiMsG4Yp5B6GVz7wEqV56ZJFnwQwzl/foHbjpr9KL3g4ssXc6sVC
weDiW/GMsa/hDLRWJag3bUGzQuPJQMKzrzUwLuQnjHOzYOi7dolUWqaqPZdsDz8f
9nD7szgR9FOPTnypaUqW6KKHj4G6EEFx2GzJIrDOwrrxC1+uQqkxOLTnHBXB+YgB
RQ+/ZseTtiWZCpno+NrvMebqm5pR7wzuEXwoKzwD3dHQcyW9xY1Gxy5YUCVipWqc
qIyONKSBxK+kk4tDPd+r8FxoSQBythN2WrRsjEZCVmKcMYgfaCN7y80nkf2IBujF
Mb7i45lvy2YYIaYzHCvr6olClZWOABESAiBlKg6bedkUk/xk0+983mHsLg3YnWi9
aX/b/IhyGYlDBP9B5edH8bjVTgikiWS4Zo0pl/n6xuhGvgmEGJ8WNgXwR7tLeGKV
59CWrhICMdAxPWmTgsBmO/vXYR8LXfGmphdB87KOszpoJbV+tLfVUw1GNg0CMT6n
SSd3nSlH9D/kqJ18MQ1ZLmloFZHf5sXkcg2XAgMBAAGjgZcwgZQwCQYDVR0TBAIw
ADAdBgNVHQ4EFgQUZWMcNmzjkZ7IhaZ1rniEhu4gVskwRgYDVR0jBD8wPYAUwymV
8G0m9u8D8IWab2dB4jFeR02hGqQYMBYxFDASBgNVBAMTC0Vhc3ktUlNBIENBggkA
wWzmFVLUOZowEwYDVR0lBAwwCgYIKwYBBQUHAwEwCwYDVR0PBAQDAgWgMA0GCSqG
SIb3DQEBCwUAA4ICAQBEsm3VkUYDmGwQIj5R3fmibmLfdPNd+98mCw9uci0/nUJy
XsC/dEjCl8FViKn1wiWihEr3iR4UsRsJI1E5t7UQtUCZOiPTDaM1JiDHVcH1fmW0
QY/mq2750DwX0E1vhoNj37DqNOqvPjZNdXfbTtFlXkbVi7yf3FQT2AiLRMbaemYS
65H86VeUtoNklTQbUQX+Z826JNQ2sDijc38P0YP5GDVq8ThT0mdvAbVrfPpZhD+t
19EqReLB0DTmSn0bmKeMYVY5TqBOI/Pmo0jbD6Bq11YBB5UiedKVGXLEiKdjGTqU
efqGmb4ceI/e+de/C/4wwJNqkkjYx2CuRXNtL3a3AOwt8Ud1u9HM5OmXySBVdjJh
+riSuK71/HtGFIt/uo7JyyY/kq6wZeNZqnPY96VIBM04ByTAbxQ23dRu94Wr3hyg
O5IXMPLxaYkJgPqJqHldpfsoOWVSoH3tCdS5kGs1vrGbORJXo1dHktlUnZVc4UGQ
wumJgS1OeqBsDySYu7SrriT8R1+54yaOLWSnZ9a14khwNiPkBA4gCD0uVDIsxJ5q
cWVp5TQ1GJ4JRuMqffoj4pqwJ8LTyS72Hx/1rNXh62Yiv0Q66NsZ1ebJYq5hR5cC
tCj/OQD7GpKcNFZvv2h1Y3EE2xfkvnmOwQrU7GS/BYJR0w3I87Cv2HV2i+I/8A==
-----END CERTIFICATE-----
