Certificate:
    Data:
        Version: 3 (0x2)
        Serial Number: 1 (0x1)
    Signature Algorithm: sha256WithRSAEncryption
        Issuer: C=RU, ST=MO, L=Moscow, O=mkdev, OU=MKDEV.ME, CN=mkdev CA/name=server/emailAddress=galkindmitrii@gmail.com
        Validity
            Not Before: Apr 21 11:29:27 2017 GMT
            Not After : Apr 19 11:29:27 2027 GMT
        Subject: C=RU, ST=MO, L=Moscow, O=mkdev, OU=MKDEV.ME, CN=server/name=server/emailAddress=galkindmitrii@gmail.com
        Subject Public Key Info:
            Public Key Algorithm: rsaEncryption
                Public-Key: (2048 bit)
                Modulus:
                    00:a1:4f:af:3e:9c:9d:cd:42:95:1b:93:46:b7:27:
                    6a:59:9a:15:bb:aa:3a:c1:0e:e8:95:f8:01:8d:c0:
                    32:67:3a:16:2f:8d:00:f7:e7:63:f7:7b:a8:89:76:
                    d4:4a:92:d0:c5:aa:55:24:76:08:4c:2d:fb:b9:3a:
                    57:77:61:85:5f:c3:42:0f:71:d4:d3:e1:99:bf:fb:
                    ab:ff:df:15:42:b5:ef:b3:bb:d0:ae:13:e9:21:fe:
                    72:3e:d4:23:2e:c9:72:55:06:e3:40:71:64:48:91:
                    53:fe:79:38:b1:15:94:29:cb:0d:2c:0f:2f:7b:ed:
                    89:ee:48:b8:93:ae:29:34:5b:3b:21:09:9e:54:4c:
                    08:04:a3:bb:77:1d:b3:8a:f1:ed:40:3b:54:4b:c6:
                    f3:3a:82:72:89:03:99:d5:2f:e4:eb:ce:36:db:29:
                    0e:27:d2:1f:a9:5f:43:6c:79:80:68:87:99:53:78:
                    4e:e3:fb:d6:56:18:62:d6:9f:3a:82:6b:11:0a:3d:
                    54:dd:fd:78:2e:62:7c:2a:ba:17:6b:c7:bb:04:32:
                    ad:b9:a2:c5:9b:12:dd:6b:b4:72:43:f7:89:78:a9:
                    4f:d9:60:aa:67:51:8f:22:72:bb:6d:ed:27:f8:69:
                    44:45:83:ae:49:58:4e:55:c4:23:7e:55:c4:9b:18:
                    22:e5
                Exponent: 65537 (0x10001)
        X509v3 extensions:
            X509v3 Basic Constraints: 
                CA:FALSE
            Netscape Cert Type: 
                SSL Server
            Netscape Comment: 
                Easy-RSA Generated Server Certificate
            X509v3 Subject Key Identifier: 
                2C:67:F3:66:CD:4F:FA:A9:BC:E6:03:15:77:62:AA:92:E0:3F:22:BF
            X509v3 Authority Key Identifier: 
                keyid:36:B5:19:EA:57:21:EE:3B:DD:A3:4F:A2:BB:A2:70:DE:18:93:54:28
                DirName:/C=RU/ST=MO/L=Moscow/O=mkdev/OU=MKDEV.ME/CN=mkdev CA/name=server/emailAddress=galkindmitrii@gmail.com
                serial:B8:EB:A8:26:96:2D:14:A4

            X509v3 Extended Key Usage: 
                TLS Web Server Authentication
            X509v3 Key Usage: 
                Digital Signature, Key Encipherment
    Signature Algorithm: sha256WithRSAEncryption
         19:72:95:af:d9:fb:b1:d1:da:b2:82:3f:90:3f:8b:9c:aa:25:
         10:7b:02:68:71:e1:c5:fc:12:af:0e:e9:ac:00:72:35:d8:49:
         fc:a7:b4:be:7b:fe:be:7c:75:f3:61:c0:d6:23:9a:32:9c:47:
         75:d3:2e:bb:b2:ec:fc:99:72:b1:0c:b9:db:07:0b:e3:fd:32:
         c5:34:1e:f3:40:3b:e5:40:37:bb:59:dd:20:b9:8b:aa:54:e1:
         cb:d8:a8:1e:7f:61:17:31:c6:7d:22:25:28:f1:d7:4b:23:e7:
         4f:30:cb:47:31:f5:44:2b:c3:d2:68:73:56:80:94:2e:7b:c9:
         a3:b0:5c:11:65:fd:42:63:58:69:a6:66:3f:5e:57:2f:2b:99:
         2d:73:d5:da:fa:dc:36:eb:29:12:56:a8:7d:14:02:b7:39:a1:
         e2:02:d0:50:44:1c:4f:ff:90:05:f5:dc:a6:8e:0b:44:7c:8c:
         f1:3d:8f:20:f6:f5:62:d6:c9:47:c9:d5:85:fc:8f:97:3f:04:
         cc:9b:81:3c:7c:33:26:7e:7f:7d:58:a1:28:59:f5:a9:c6:f2:
         c2:85:57:e9:96:81:24:33:f7:ee:cf:d2:4e:42:7b:19:e1:c4:
         16:37:cd:2f:41:e8:f1:ea:c4:0f:38:ff:6c:35:f1:7a:3b:94:
         61:c7:e3:f6
-----BEGIN CERTIFICATE-----
MIIFHDCCBASgAwIBAgIBATANBgkqhkiG9w0BAQsFADCBmjELMAkGA1UEBhMCUlUx
CzAJBgNVBAgTAk1PMQ8wDQYDVQQHEwZNb3Njb3cxDjAMBgNVBAoTBW1rZGV2MREw
DwYDVQQLEwhNS0RFVi5NRTERMA8GA1UEAxMIbWtkZXYgQ0ExDzANBgNVBCkTBnNl
cnZlcjEmMCQGCSqGSIb3DQEJARYXZ2Fsa2luZG1pdHJpaUBnbWFpbC5jb20wHhcN
MTcwNDIxMTEyOTI3WhcNMjcwNDE5MTEyOTI3WjCBmDELMAkGA1UEBhMCUlUxCzAJ
BgNVBAgTAk1PMQ8wDQYDVQQHEwZNb3Njb3cxDjAMBgNVBAoTBW1rZGV2MREwDwYD
VQQLEwhNS0RFVi5NRTEPMA0GA1UEAxMGc2VydmVyMQ8wDQYDVQQpEwZzZXJ2ZXIx
JjAkBgkqhkiG9w0BCQEWF2dhbGtpbmRtaXRyaWlAZ21haWwuY29tMIIBIjANBgkq
hkiG9w0BAQEFAAOCAQ8AMIIBCgKCAQEAoU+vPpydzUKVG5NGtydqWZoVu6o6wQ7o
lfgBjcAyZzoWL40A9+dj93uoiXbUSpLQxapVJHYITC37uTpXd2GFX8NCD3HU0+GZ
v/ur/98VQrXvs7vQrhPpIf5yPtQjLslyVQbjQHFkSJFT/nk4sRWUKcsNLA8ve+2J
7ki4k64pNFs7IQmeVEwIBKO7dx2zivHtQDtUS8bzOoJyiQOZ1S/k68422ykOJ9If
qV9DbHmAaIeZU3hO4/vWVhhi1p86gmsRCj1U3f14LmJ8KroXa8e7BDKtuaLFmxLd
a7RyQ/eJeKlP2WCqZ1GPInK7be0n+GlERYOuSVhOVcQjflXEmxgi5QIDAQABo4IB
azCCAWcwCQYDVR0TBAIwADARBglghkgBhvhCAQEEBAMCBkAwNAYJYIZIAYb4QgEN
BCcWJUVhc3ktUlNBIEdlbmVyYXRlZCBTZXJ2ZXIgQ2VydGlmaWNhdGUwHQYDVR0O
BBYEFCxn82bNT/qpvOYDFXdiqpLgPyK/MIHPBgNVHSMEgccwgcSAFDa1GepXIe47
3aNPoruicN4Yk1QooYGgpIGdMIGaMQswCQYDVQQGEwJSVTELMAkGA1UECBMCTU8x
DzANBgNVBAcTBk1vc2NvdzEOMAwGA1UEChMFbWtkZXYxETAPBgNVBAsTCE1LREVW
Lk1FMREwDwYDVQQDEwhta2RldiBDQTEPMA0GA1UEKRMGc2VydmVyMSYwJAYJKoZI
hvcNAQkBFhdnYWxraW5kbWl0cmlpQGdtYWlsLmNvbYIJALjrqCaWLRSkMBMGA1Ud
JQQMMAoGCCsGAQUFBwMBMAsGA1UdDwQEAwIFoDANBgkqhkiG9w0BAQsFAAOCAQEA
GXKVr9n7sdHasoI/kD+LnKolEHsCaHHhxfwSrw7prAByNdhJ/Ke0vnv+vnx182HA
1iOaMpxHddMuu7Ls/JlysQy52wcL4/0yxTQe80A75UA3u1ndILmLqlThy9ioHn9h
FzHGfSIlKPHXSyPnTzDLRzH1RCvD0mhzVoCULnvJo7BcEWX9QmNYaaZmP15XLyuZ
LXPV2vrcNuspElaofRQCtzmh4gLQUEQcT/+QBfXcpo4LRHyM8T2PIPb1YtbJR8nV
hfyPlz8EzJuBPHwzJn5/fVihKFn1qcbywoVX6ZaBJDP37s/STkJ7GeHEFjfNL0Ho
8erEDzj/bDXxejuUYcfj9g==
-----END CERTIFICATE-----
