Certificate:
    Data:
        Version: 3 (0x2)
        Serial Number: 2 (0x2)
    Signature Algorithm: sha256WithRSAEncryption
        Issuer: C=RU, ST=MO, L=Moscow, O=mkdev, OU=MKDEV.ME, CN=mkdev CA/name=server/emailAddress=galkindmitrii@gmail.com
        Validity
            Not Before: Apr 21 11:31:50 2017 GMT
            Not After : Apr 19 11:31:50 2027 GMT
        Subject: C=RU, ST=MO, L=Moscow, O=mkdev, OU=MKDEV.ME, CN=client/name=server/emailAddress=galkindmitrii@gmail.com
        Subject Public Key Info:
            Public Key Algorithm: rsaEncryption
                Public-Key: (2048 bit)
                Modulus:
                    00:ca:ee:70:70:61:b1:ab:f1:71:dc:6c:5a:26:f5:
                    97:cf:a9:c9:e2:e0:b5:22:b5:50:cf:41:fd:67:bb:
                    33:30:35:80:d8:f8:40:61:0d:36:29:56:61:2f:d8:
                    79:f6:9b:8f:14:00:fb:0a:27:b7:a7:1c:bc:8d:64:
                    37:a4:88:81:ab:11:38:f5:92:35:fc:d1:bc:b9:af:
                    30:3c:6c:46:19:85:1a:1e:e6:e8:13:3c:ad:97:7f:
                    a9:5c:ce:8b:b5:c3:68:eb:b5:05:22:db:5d:8d:6b:
                    45:26:86:7c:e7:77:67:94:0d:d5:d1:f7:83:87:2d:
                    3f:c9:fb:71:6b:dd:f5:0a:3a:38:ed:d1:04:b9:9a:
                    67:79:8c:4a:64:21:71:a8:79:1e:25:81:ab:85:c6:
                    3f:de:c8:32:d3:f6:f6:4c:4c:85:1b:63:f5:ee:8a:
                    ed:7c:9a:e6:f3:6b:04:a5:9b:b2:ee:26:42:65:4f:
                    ab:6d:d3:01:16:25:2c:fc:e5:f5:0f:70:21:46:5f:
                    3c:e9:d1:88:7e:bf:b3:57:4d:78:f9:30:0d:5a:2a:
                    66:4b:1f:da:9f:59:ec:0a:c0:59:75:64:11:9b:85:
                    e6:52:dd:b3:04:36:56:33:da:0c:72:94:46:2d:b9:
                    9e:e2:74:fc:07:6f:55:0a:61:af:9b:e7:39:88:72:
                    48:2b
                Exponent: 65537 (0x10001)
        X509v3 extensions:
            X509v3 Basic Constraints: 
                CA:FALSE
            Netscape Comment: 
                Easy-RSA Generated Certificate
            X509v3 Subject Key Identifier: 
                DB:B7:9F:7E:CC:86:AC:68:EF:F0:7B:38:DB:6C:92:53:1B:99:C3:63
            X509v3 Authority Key Identifier: 
                keyid:36:B5:19:EA:57:21:EE:3B:DD:A3:4F:A2:BB:A2:70:DE:18:93:54:28
                DirName:/C=RU/ST=MO/L=Moscow/O=mkdev/OU=MKDEV.ME/CN=mkdev CA/name=server/emailAddress=galkindmitrii@gmail.com
                serial:B8:EB:A8:26:96:2D:14:A4

            X509v3 Extended Key Usage: 
                TLS Web Client Authentication
            X509v3 Key Usage: 
                Digital Signature
    Signature Algorithm: sha256WithRSAEncryption
         22:bb:95:a5:f3:65:cd:33:d4:5b:92:d2:12:8c:14:9a:d3:63:
         cb:70:98:d1:3d:58:44:1a:60:57:17:5b:6a:ed:24:05:50:9b:
         ca:2a:59:35:ce:9d:ce:41:a0:9c:27:ae:b0:ea:3a:82:64:0f:
         14:c3:cd:1e:e3:83:7c:42:fb:4d:8f:c5:cb:23:7d:cf:5c:7b:
         7d:22:6b:36:e9:43:7c:f4:2c:00:78:64:cd:fe:de:5b:77:ff:
         96:d1:34:a0:52:64:27:41:c2:b9:40:b8:9b:e4:f5:49:34:df:
         28:2f:2d:a7:60:f9:4f:9d:02:a5:fb:28:29:da:18:cf:1d:98:
         0b:af:30:a9:b5:cb:af:3b:0c:83:40:40:98:c0:88:e5:f0:92:
         f7:47:3e:dc:9a:5a:4c:4e:50:c8:d5:30:06:d7:9b:cb:f4:1b:
         f0:cc:cd:3e:1f:db:62:e9:f7:04:df:72:26:33:31:5e:de:77:
         80:80:85:05:35:eb:93:5d:89:ca:0a:2b:a8:65:55:bf:94:12:
         06:7e:a3:60:10:a7:dc:f9:b5:7f:04:5c:10:17:cf:d8:b1:71:
         15:68:0e:c2:93:67:80:6a:65:44:6e:be:b5:ca:ca:68:86:98:
         f1:59:57:b2:19:b5:4c:a7:dd:18:2b:fe:d5:dc:4e:24:02:71:
         e2:2f:14:e2
-----BEGIN CERTIFICATE-----
MIIFAjCCA+qgAwIBAgIBAjANBgkqhkiG9w0BAQsFADCBmjELMAkGA1UEBhMCUlUx
CzAJBgNVBAgTAk1PMQ8wDQYDVQQHEwZNb3Njb3cxDjAMBgNVBAoTBW1rZGV2MREw
DwYDVQQLEwhNS0RFVi5NRTERMA8GA1UEAxMIbWtkZXYgQ0ExDzANBgNVBCkTBnNl
cnZlcjEmMCQGCSqGSIb3DQEJARYXZ2Fsa2luZG1pdHJpaUBnbWFpbC5jb20wHhcN
MTcwNDIxMTEzMTUwWhcNMjcwNDE5MTEzMTUwWjCBmDELMAkGA1UEBhMCUlUxCzAJ
BgNVBAgTAk1PMQ8wDQYDVQQHEwZNb3Njb3cxDjAMBgNVBAoTBW1rZGV2MREwDwYD
VQQLEwhNS0RFVi5NRTEPMA0GA1UEAxMGY2xpZW50MQ8wDQYDVQQpEwZzZXJ2ZXIx
JjAkBgkqhkiG9w0BCQEWF2dhbGtpbmRtaXRyaWlAZ21haWwuY29tMIIBIjANBgkq
hkiG9w0BAQEFAAOCAQ8AMIIBCgKCAQEAyu5wcGGxq/Fx3GxaJvWXz6nJ4uC1IrVQ
z0H9Z7szMDWA2PhAYQ02KVZhL9h59puPFAD7Cie3pxy8jWQ3pIiBqxE49ZI1/NG8
ua8wPGxGGYUaHuboEzytl3+pXM6LtcNo67UFIttdjWtFJoZ853dnlA3V0feDhy0/
yftxa931Cjo47dEEuZpneYxKZCFxqHkeJYGrhcY/3sgy0/b2TEyFG2P17ortfJrm
82sEpZuy7iZCZU+rbdMBFiUs/OX1D3AhRl886dGIfr+zV014+TANWipmSx/an1ns
CsBZdWQRm4XmUt2zBDZWM9oMcpRGLbme4nT8B29VCmGvm+c5iHJIKwIDAQABo4IB
UTCCAU0wCQYDVR0TBAIwADAtBglghkgBhvhCAQ0EIBYeRWFzeS1SU0EgR2VuZXJh
dGVkIENlcnRpZmljYXRlMB0GA1UdDgQWBBTbt59+zIasaO/wezjbbJJTG5nDYzCB
zwYDVR0jBIHHMIHEgBQ2tRnqVyHuO92jT6K7onDeGJNUKKGBoKSBnTCBmjELMAkG
A1UEBhMCUlUxCzAJBgNVBAgTAk1PMQ8wDQYDVQQHEwZNb3Njb3cxDjAMBgNVBAoT
BW1rZGV2MREwDwYDVQQLEwhNS0RFVi5NRTERMA8GA1UEAxMIbWtkZXYgQ0ExDzAN
BgNVBCkTBnNlcnZlcjEmMCQGCSqGSIb3DQEJARYXZ2Fsa2luZG1pdHJpaUBnbWFp
bC5jb22CCQC466gmli0UpDATBgNVHSUEDDAKBggrBgEFBQcDAjALBgNVHQ8EBAMC
B4AwDQYJKoZIhvcNAQELBQADggEBACK7laXzZc0z1FuS0hKMFJrTY8twmNE9WEQa
YFcXW2rtJAVQm8oqWTXOnc5BoJwnrrDqOoJkDxTDzR7jg3xC+02Pxcsjfc9ce30i
azbpQ3z0LAB4ZM3+3lt3/5bRNKBSZCdBwrlAuJvk9Uk03ygvLadg+U+dAqX7KCna
GM8dmAuvMKm1y687DINAQJjAiOXwkvdHPtyaWkxOUMjVMAbXm8v0G/DMzT4f22Lp
9wTfciYzMV7ed4CAhQU165NdicoKK6hlVb+UEgZ+o2AQp9z5tX8EXBAXz9ixcRVo
DsKTZ4BqZURuvrXKymiGmPFZV7IZtUyn3Rgr/tXcTiQCceIvFOI=
-----END CERTIFICATE-----
